target datalayout = "e-m:e-p270:32:32-p271:32:32-p272:64:64-i64:64-i128:128-f80:128-n8:16:32:64-S128"
target triple = "x86_64-pc-linux-gnu"

; Function Attrs: nounwind uwtable
define ptr @ff_all_color_spaces() #0 {
  %1 = alloca ptr, align 8
  %2 = alloca ptr, align 8
  %3 = alloca i32, align 4
  %4 = alloca i32, align 4
  call void @llvm.lifetime.start.p0(i64 8, ptr %2) #7
  store ptr null, ptr %2, align 8, !tbaa !27
  %5 = call i32 @ff_add_format(ptr noundef %2, i64 noundef 2)
  %6 = icmp slt i32 %5, 0
  br i1 %6, label %7, label %8

7:                                                ; preds = %0
  store ptr null, ptr %1, align 8
  store i32 1, ptr %3, align 4
  br label %34

8:                                                ; preds = %0
  call void @llvm.lifetime.start.p0(i64 4, ptr %4) #7
  store i32 0, ptr %4, align 4, !tbaa !21
  br label %9

9:                                                ; preds = %27, %8
  %10 = load i32, ptr %4, align 4, !tbaa !21
  %11 = icmp slt i32 %10, 18
  br i1 %11, label %13, label %12

12:                                               ; preds = %9
  store i32 2, ptr %3, align 4
  br label %30

13:                                               ; preds = %9
  %14 = load i32, ptr %4, align 4, !tbaa !21
  %15 = icmp eq i32 %14, 3
  br i1 %15, label %19, label %16

16:                                               ; preds = %13
  %17 = load i32, ptr %4, align 4, !tbaa !21
  %18 = icmp eq i32 %17, 2
  br i1 %18, label %19, label %20

19:                                               ; preds = %16, %13
  br label %27

20:                                               ; preds = %16
  %21 = load i32, ptr %4, align 4, !tbaa !21
  %22 = sext i32 %21 to i64
  %23 = call i32 @ff_add_format(ptr noundef %2, i64 noundef %22)
  %24 = icmp slt i32 %23, 0
  br i1 %24, label %25, label %26

25:                                               ; preds = %20
  store ptr null, ptr %1, align 8
  store i32 1, ptr %3, align 4
  br label %30

26:                                               ; preds = %20
  br label %27

27:                                               ; preds = %26, %19
  %28 = load i32, ptr %4, align 4, !tbaa !21
  %29 = add nsw i32 %28, 1
  store i32 %29, ptr %4, align 4, !tbaa !21
  br label %9, !llvm.loop !69

30:                                               ; preds = %25, %12
  call void @llvm.lifetime.end.p0(i64 4, ptr %4) #7
  %31 = load i32, ptr %3, align 4
  switch i32 %31, label %34 [
    i32 2, label %32
  ]

32:                                               ; preds = %30
  %33 = load ptr, ptr %2, align 8, !tbaa !27
  store ptr %33, ptr %1, align 8
  store i32 1, ptr %3, align 4
  br label %34

34:                                               ; preds = %32, %30, %7
  call void @llvm.lifetime.end.p0(i64 8, ptr %2) #7
  %35 = load ptr, ptr %1, align 8
  ret ptr %35
}

; Function Attrs: nounwind uwtable
define i32 @ff_set_common_all_color_spaces2(ptr noundef %0, ptr noundef %1, ptr noundef %2) #0 {
  %4 = alloca ptr, align 8
  %5 = alloca ptr, align 8
  %6 = alloca ptr, align 8
  store ptr %0, ptr %4, align 8, !tbaa !74
  store ptr %1, ptr %5, align 8, !tbaa !107
  store ptr %2, ptr %6, align 8, !tbaa !107
  %7 = load ptr, ptr %4, align 8, !tbaa !74
  %8 = load ptr, ptr %5, align 8, !tbaa !107
  %9 = load ptr, ptr %6, align 8, !tbaa !107
  %10 = call ptr @ff_all_color_spaces()
  %11 = call i32 @ff_set_common_color_spaces2(ptr noundef %7, ptr noundef %8, ptr noundef %9, ptr noundef %10)
  ret i32 %11
}