; Function Attrs: nounwind uwtable
define range(i32 -12, 1) i32 @ff_set_common_all_color_spaces2(ptr noundef readonly captures(none) %0, ptr noundef readonly captures(none) %1, ptr noundef readonly captures(none) %2) local_unnamed_addr #3 {
  %4 = alloca ptr, align 8
  call void @llvm.lifetime.start.p0(i64 8, ptr nonnull %4) #10
  store ptr null, ptr %4, align 8, !tbaa !23
  %5 = call i32 @ff_add_format(ptr noundef nonnull %4, i64 noundef 2)
  %6 = icmp slt i32 %5, 0
  br i1 %6, label %ff_all_color_spaces.exit, label %.preheader.i

.preheader.i:                                     ; preds = %3, %11
  %indvars.iv.i = phi i64 [ %indvars.iv.next.i, %11 ], [ 0, %3 ]
  %7 = and i64 %indvars.iv.i, 30
  %or.cond.i = icmp eq i64 %7, 2
  br i1 %or.cond.i, label %11, label %8

8:                                                ; preds = %.preheader.i
  %9 = call i32 @ff_add_format(ptr noundef nonnull %4, i64 noundef %indvars.iv.i)
  %10 = icmp slt i32 %9, 0
  br i1 %10, label %ff_all_color_spaces.exit, label %11

11:                                               ; preds = %8, %.preheader.i
  %indvars.iv.next.i = add nuw nsw i64 %indvars.iv.i, 1
  %exitcond.i = icmp eq i64 %indvars.iv.next.i, 18
  br i1 %exitcond.i, label %12, label %.preheader.i, !llvm.loop !62

12:                                               ; preds = %11
  %13 = load ptr, ptr %4, align 8
  br label %ff_all_color_spaces.exit

ff_all_color_spaces.exit:                         ; preds = %8, %3, %12
  %.08.i = phi ptr [ null, %3 ], [ %13, %12 ], [ null, %8 ]
  call void @llvm.lifetime.end.p0(i64 8, ptr nonnull %4) #10
  %14 = call i32 @ff_set_common_color_spaces2(ptr noundef %0, ptr noundef %1, ptr noundef %2, ptr noundef %.08.i)
  ret i32 %14
}